; Function Attrs: mustprogress uwtable
define noundef nonnull align 8 dereferenceable(24) ptr @_ZN5folly16getHugePageSizesEv() local_unnamed_addr #3 personality ptr @__gxx_personality_v0 {
  %1 = load atomic i8, ptr @_ZGVZN5folly16getHugePageSizesEvE5sizes acquire, align 8
  %2 = icmp eq i8 %1, 0
  br i1 %2, label %3, label %8, !prof !19

3:                                                ; preds = %0
  %4 = tail call i32 @__cxa_guard_acquire(ptr nonnull @_ZGVZN5folly16getHugePageSizesEvE5sizes) #32
  %.not = icmp eq i32 %4, 0
  br i1 %.not, label %8, label %5

5:                                                ; preds = %3
  invoke fastcc void @_ZN5folly12_GLOBAL__N_117readHugePageSizesEv()
          to label %6 unwind label %9

6:                                                ; preds = %5
  %7 = tail call i32 @__cxa_atexit(ptr nonnull @_ZNSt6vectorIN5folly12HugePageSizeESaIS1_EED2Ev, ptr nonnull @_ZZN5folly16getHugePageSizesEvE5sizes, ptr nonnull @__dso_handle) #32
  tail call void @__cxa_guard_release(ptr nonnull @_ZGVZN5folly16getHugePageSizesEvE5sizes) #32
  br label %8

8:                                                ; preds = %6, %3, %0
  ret ptr @_ZZN5folly16getHugePageSizesEvE5sizes

9:                                                ; preds = %5
  %10 = landingpad { ptr, i32 }
          cleanup
  tail call void @__cxa_guard_abort(ptr nonnull @_ZGVZN5folly16getHugePageSizesEvE5sizes) #32
  resume { ptr, i32 } %10
}